target datalayout = "e-m:e-p270:32:32-p271:32:32-p272:64:64-i64:64-i128:128-f80:128-n8:16:32:64-S128"
target triple = "x86_64-pc-linux-gnu"

%struct.Abc_Frame_t_ = type { ptr, ptr, ptr, ptr, ptr, ptr, ptr, ptr, ptr, ptr, i32, i32, i32, i32, i32, ptr, float, float, i32, i32, ptr, ptr, ptr, double, double, ptr, ptr, ptr, ptr, ptr, ptr, ptr, ptr, ptr, ptr, ptr, ptr, float, ptr, i32, ptr, ptr, ptr, ptr, ptr, i32, i32, i32, i32, i32, i32, ptr, ptr, ptr, ptr, ptr, ptr, i32, i32, ptr, ptr, ptr, ptr, ptr, ptr, ptr, ptr, ptr, ptr, ptr, ptr, ptr, ptr, ptr, ptr, ptr, ptr, ptr, ptr, ptr, ptr, ptr, ptr, ptr, ptr, ptr, ptr, ptr, ptr }
%struct.Abc_Ntk_t_ = type { i32, i32, ptr, ptr, ptr, ptr, ptr, ptr, ptr, ptr, ptr, ptr, ptr, [11 x i32], i32, i32, i32, i32, ptr, i32, ptr, ptr, i32, i32, i32, double, i32, %struct.Vec_Int_t_, ptr, ptr, ptr, ptr, ptr, float, i32, ptr, ptr, ptr, ptr, ptr, ptr, ptr, ptr, ptr, ptr, ptr, ptr, ptr, ptr, ptr, ptr, ptr, ptr, ptr, ptr, ptr, ptr }
%struct.Vec_Int_t_ = type { i32, i32, ptr }

@stdout = external global ptr, align 8
@globalUtilOptind = external global i32, align 4
@.str.113 = private unnamed_addr constant [4 x i8] c"yes\00", align 1
@.str.114 = private unnamed_addr constant [3 x i8] c"no\00", align 1
@.str.142 = private unnamed_addr constant [16 x i8] c"Empty network.\0A\00", align 1
@.str.193 = private unnamed_addr constant [62 x i8] c"\09-v     : toggle printing verbose information [default = %s]\0A\00", align 1
@.str.233 = private unnamed_addr constant [34 x i8] c"\09-h     : print the help massage\0A\00", align 1
@.str.239 = private unnamed_addr constant [6 x i8] c"scuvh\00", align 1
@.str.240 = private unnamed_addr constant [68 x i8] c"Writing this format is only possible for structurally hashed AIGs.\0A\00", align 1
@.str.241 = private unnamed_addr constant [36 x i8] c"usage: write_aiger [-scuvh] <file>\0A\00", align 1
@.str.242 = private unnamed_addr constant [76 x i8] c"\09         writes the network in the AIGER format (http://fmv.jku.at/aiger)\0A\00", align 1
@.str.243 = private unnamed_addr constant [50 x i8] c"\09-s     : toggle saving I/O names [default = %s]\0A\00", align 1
@.str.244 = private unnamed_addr constant [56 x i8] c"\09-c     : toggle writing more compactly [default = %s]\0A\00", align 1
@.str.245 = private unnamed_addr constant [65 x i8] c"\09-u     : toggle writing canonical AIG structure [default = %s]\0A\00", align 1
@.str.246 = private unnamed_addr constant [58 x i8] c"\09file   : the name of the file to write (extension .aig)\0A\00", align 1

; Function Attrs: inlinehint nounwind uwtable
define internal i32 @Abc_NtkIsStrash(ptr noundef %0) #3 {
  %2 = alloca ptr, align 8
  store ptr %0, ptr %2, align 8, !tbaa !18
  %3 = load ptr, ptr %2, align 8, !tbaa !18
  %4 = getelementptr inbounds nuw %struct.Abc_Ntk_t_, ptr %3, i32 0, i32 0
  %5 = load i32, ptr %4, align 8, !tbaa !171
  %6 = icmp eq i32 %5, 3
  %7 = zext i1 %6 to i32
  ret i32 %7
}

; Function Attrs: nounwind uwtable
define internal i32 @IoCommandWriteAiger(ptr noundef %0, i32 noundef %1, ptr noundef %2) #0 {
  %4 = alloca i32, align 4
  %5 = alloca ptr, align 8
  %6 = alloca i32, align 4
  %7 = alloca ptr, align 8
  %8 = alloca ptr, align 8
  %9 = alloca i32, align 4
  %10 = alloca i32, align 4
  %11 = alloca i32, align 4
  %12 = alloca i32, align 4
  %13 = alloca i32, align 4
  %14 = alloca i32, align 4
  %15 = alloca ptr, align 8
  %16 = alloca ptr, align 8
  %17 = alloca ptr, align 8
  store ptr %0, ptr %5, align 8, !tbaa !3
  store i32 %1, ptr %6, align 4, !tbaa !8
  store ptr %2, ptr %7, align 8, !tbaa !10
  call void @llvm.lifetime.start.p0(i64 8, ptr %8) #11
  call void @llvm.lifetime.start.p0(i64 4, ptr %9) #11
  call void @llvm.lifetime.start.p0(i64 4, ptr %10) #11
  call void @llvm.lifetime.start.p0(i64 4, ptr %11) #11
  call void @llvm.lifetime.start.p0(i64 4, ptr %12) #11
  call void @llvm.lifetime.start.p0(i64 4, ptr %13) #11
  store i32 0, ptr %9, align 4, !tbaa !8
  store i32 0, ptr %10, align 4, !tbaa !8
  store i32 0, ptr %11, align 4, !tbaa !8
  store i32 0, ptr %12, align 4, !tbaa !8
  call void (...) @Extra_UtilGetoptReset()
  br label %18

18:                                               ; preds = %39, %3
  %19 = load i32, ptr %6, align 4, !tbaa !8
  %20 = load ptr, ptr %7, align 8, !tbaa !10
  %21 = call i32 @Extra_UtilGetopt(i32 noundef %19, ptr noundef %20, ptr noundef @.str.239)
  store i32 %21, ptr %13, align 4, !tbaa !8
  %22 = icmp ne i32 %21, -1
  br i1 %22, label %23, label %40

23:                                               ; preds = %18
  %24 = load i32, ptr %13, align 4, !tbaa !8
  switch i32 %24, label %38 [
    i32 115, label %25
    i32 99, label %28
    i32 117, label %31
    i32 118, label %34
    i32 104, label %37
  ]

25:                                               ; preds = %23
  %26 = load i32, ptr %9, align 4, !tbaa !8
  %27 = xor i32 %26, 1
  store i32 %27, ptr %9, align 4, !tbaa !8
  br label %39

28:                                               ; preds = %23
  %29 = load i32, ptr %10, align 4, !tbaa !8
  %30 = xor i32 %29, 1
  store i32 %30, ptr %10, align 4, !tbaa !8
  br label %39

31:                                               ; preds = %23
  %32 = load i32, ptr %11, align 4, !tbaa !8
  %33 = xor i32 %32, 1
  store i32 %33, ptr %11, align 4, !tbaa !8
  br label %39

34:                                               ; preds = %23
  %35 = load i32, ptr %12, align 4, !tbaa !8
  %36 = xor i32 %35, 1
  store i32 %36, ptr %12, align 4, !tbaa !8
  br label %39

37:                                               ; preds = %23
  br label %100

38:                                               ; preds = %23
  br label %100

39:                                               ; preds = %34, %31, %28, %25
  br label %18, !llvm.loop !75

40:                                               ; preds = %18
  %41 = load ptr, ptr %5, align 8, !tbaa !3
  %42 = getelementptr inbounds nuw %struct.Abc_Frame_t_, ptr %41, i32 0, i32 6
  %43 = load ptr, ptr %42, align 8, !tbaa !44
  %44 = icmp eq ptr %43, null
  br i1 %44, label %45, label %50

45:                                               ; preds = %40
  %46 = load ptr, ptr %5, align 8, !tbaa !3
  %47 = getelementptr inbounds nuw %struct.Abc_Frame_t_, ptr %46, i32 0, i32 20
  %48 = load ptr, ptr %47, align 8, !tbaa !45
  %49 = call i32 (ptr, ptr, ...) @fprintf(ptr noundef %48, ptr noundef @.str.142) #11
  store i32 0, ptr %4, align 4
  store i32 1, ptr %14, align 4
  br label %145

50:                                               ; preds = %40
  %51 = load i32, ptr %6, align 4, !tbaa !8
  %52 = load i32, ptr @globalUtilOptind, align 4, !tbaa !8
  %53 = add nsw i32 %52, 1
  %54 = icmp ne i32 %51, %53
  br i1 %54, label %55, label %56

55:                                               ; preds = %50
  br label %100

56:                                               ; preds = %50
  %57 = load ptr, ptr %7, align 8, !tbaa !10
  %58 = load i32, ptr @globalUtilOptind, align 4, !tbaa !8
  %59 = sext i32 %58 to i64
  %60 = getelementptr inbounds ptr, ptr %57, i64 %59
  %61 = load ptr, ptr %60, align 8, !tbaa !14
  store ptr %61, ptr %8, align 8, !tbaa !14
  %62 = load ptr, ptr %5, align 8, !tbaa !3
  %63 = getelementptr inbounds nuw %struct.Abc_Frame_t_, ptr %62, i32 0, i32 6
  %64 = load ptr, ptr %63, align 8, !tbaa !44
  %65 = call i32 @Abc_NtkIsStrash(ptr noundef %64)
  %66 = icmp ne i32 %65, 0
  br i1 %66, label %70, label %67

67:                                               ; preds = %56
  %68 = load ptr, ptr @stdout, align 8, !tbaa !22
  %69 = call i32 (ptr, ptr, ...) @fprintf(ptr noundef %68, ptr noundef @.str.240) #11
  store i32 1, ptr %4, align 4
  store i32 1, ptr %14, align 4
  br label %145

70:                                               ; preds = %56
  %71 = load i32, ptr %11, align 4, !tbaa !8
  %72 = icmp ne i32 %71, 0
  br i1 %72, label %73, label %91

73:                                               ; preds = %70
  call void @llvm.lifetime.start.p0(i64 8, ptr %15) #11
  %74 = load ptr, ptr %5, align 8, !tbaa !3
  %75 = getelementptr inbounds nuw %struct.Abc_Frame_t_, ptr %74, i32 0, i32 6
  %76 = load ptr, ptr %75, align 8, !tbaa !44
  %77 = call ptr @Abc_NtkToDar(ptr noundef %76, i32 noundef 0, i32 noundef 1)
  store ptr %77, ptr %15, align 8, !tbaa !47
  call void @llvm.lifetime.start.p0(i64 8, ptr %16) #11
  %78 = load ptr, ptr %15, align 8, !tbaa !47
  %79 = load i32, ptr %12, align 4, !tbaa !8
  %80 = call ptr @Saig_ManDupIsoCanonical(ptr noundef %78, i32 noundef %79)
  store ptr %80, ptr %16, align 8, !tbaa !47
  call void @llvm.lifetime.start.p0(i64 8, ptr %17) #11
  %81 = load ptr, ptr %16, align 8, !tbaa !47
  %82 = call ptr @Abc_NtkFromAigPhase(ptr noundef %81)
  store ptr %82, ptr %17, align 8, !tbaa !18
  %83 = load ptr, ptr %16, align 8, !tbaa !47
  call void @Aig_ManStop(ptr noundef %83)
  %84 = load ptr, ptr %15, align 8, !tbaa !47
  call void @Aig_ManStop(ptr noundef %84)
  %85 = load ptr, ptr %17, align 8, !tbaa !18
  %86 = load ptr, ptr %8, align 8, !tbaa !14
  %87 = load i32, ptr %9, align 4, !tbaa !8
  %88 = load i32, ptr %10, align 4, !tbaa !8
  %89 = load i32, ptr %11, align 4, !tbaa !8
  call void @Io_WriteAiger(ptr noundef %85, ptr noundef %86, i32 noundef %87, i32 noundef %88, i32 noundef %89)
  %90 = load ptr, ptr %17, align 8, !tbaa !18
  call void @Abc_NtkDelete(ptr noundef %90)
  call void @llvm.lifetime.end.p0(i64 8, ptr %17) #11
  call void @llvm.lifetime.end.p0(i64 8, ptr %16) #11
  call void @llvm.lifetime.end.p0(i64 8, ptr %15) #11
  br label %99

91:                                               ; preds = %70
  %92 = load ptr, ptr %5, align 8, !tbaa !3
  %93 = getelementptr inbounds nuw %struct.Abc_Frame_t_, ptr %92, i32 0, i32 6
  %94 = load ptr, ptr %93, align 8, !tbaa !44
  %95 = load ptr, ptr %8, align 8, !tbaa !14
  %96 = load i32, ptr %9, align 4, !tbaa !8
  %97 = load i32, ptr %10, align 4, !tbaa !8
  %98 = load i32, ptr %11, align 4, !tbaa !8
  call void @Io_WriteAiger(ptr noundef %94, ptr noundef %95, i32 noundef %96, i32 noundef %97, i32 noundef %98)
  br label %99

99:                                               ; preds = %91, %73
  store i32 0, ptr %4, align 4
  store i32 1, ptr %14, align 4
  br label %145

100:                                              ; preds = %55, %38, %37
  %101 = load ptr, ptr %5, align 8, !tbaa !3
  %102 = getelementptr inbounds nuw %struct.Abc_Frame_t_, ptr %101, i32 0, i32 21
  %103 = load ptr, ptr %102, align 8, !tbaa !24
  %104 = call i32 (ptr, ptr, ...) @fprintf(ptr noundef %103, ptr noundef @.str.241) #11
  %105 = load ptr, ptr %5, align 8, !tbaa !3
  %106 = getelementptr inbounds nuw %struct.Abc_Frame_t_, ptr %105, i32 0, i32 21
  %107 = load ptr, ptr %106, align 8, !tbaa !24
  %108 = call i32 (ptr, ptr, ...) @fprintf(ptr noundef %107, ptr noundef @.str.242) #11
  %109 = load ptr, ptr %5, align 8, !tbaa !3
  %110 = getelementptr inbounds nuw %struct.Abc_Frame_t_, ptr %109, i32 0, i32 21
  %111 = load ptr, ptr %110, align 8, !tbaa !24
  %112 = load i32, ptr %9, align 4, !tbaa !8
  %113 = icmp ne i32 %112, 0
  %114 = select i1 %113, ptr @.str.113, ptr @.str.114
  %115 = call i32 (ptr, ptr, ...) @fprintf(ptr noundef %111, ptr noundef @.str.243, ptr noundef %114) #11
  %116 = load ptr, ptr %5, align 8, !tbaa !3
  %117 = getelementptr inbounds nuw %struct.Abc_Frame_t_, ptr %116, i32 0, i32 21
  %118 = load ptr, ptr %117, align 8, !tbaa !24
  %119 = load i32, ptr %10, align 4, !tbaa !8
  %120 = icmp ne i32 %119, 0
  %121 = select i1 %120, ptr @.str.113, ptr @.str.114
  %122 = call i32 (ptr, ptr, ...) @fprintf(ptr noundef %118, ptr noundef @.str.244, ptr noundef %121) #11
  %123 = load ptr, ptr %5, align 8, !tbaa !3
  %124 = getelementptr inbounds nuw %struct.Abc_Frame_t_, ptr %123, i32 0, i32 21
  %125 = load ptr, ptr %124, align 8, !tbaa !24
  %126 = load i32, ptr %11, align 4, !tbaa !8
  %127 = icmp ne i32 %126, 0
  %128 = select i1 %127, ptr @.str.113, ptr @.str.114
  %129 = call i32 (ptr, ptr, ...) @fprintf(ptr noundef %125, ptr noundef @.str.245, ptr noundef %128) #11
  %130 = load ptr, ptr %5, align 8, !tbaa !3
  %131 = getelementptr inbounds nuw %struct.Abc_Frame_t_, ptr %130, i32 0, i32 21
  %132 = load ptr, ptr %131, align 8, !tbaa !24
  %133 = load i32, ptr %12, align 4, !tbaa !8
  %134 = icmp ne i32 %133, 0
  %135 = select i1 %134, ptr @.str.113, ptr @.str.114
  %136 = call i32 (ptr, ptr, ...) @fprintf(ptr noundef %132, ptr noundef @.str.193, ptr noundef %135) #11
  %137 = load ptr, ptr %5, align 8, !tbaa !3
  %138 = getelementptr inbounds nuw %struct.Abc_Frame_t_, ptr %137, i32 0, i32 21
  %139 = load ptr, ptr %138, align 8, !tbaa !24
  %140 = call i32 (ptr, ptr, ...) @fprintf(ptr noundef %139, ptr noundef @.str.233) #11
  %141 = load ptr, ptr %5, align 8, !tbaa !3
  %142 = getelementptr inbounds nuw %struct.Abc_Frame_t_, ptr %141, i32 0, i32 21
  %143 = load ptr, ptr %142, align 8, !tbaa !24
  %144 = call i32 (ptr, ptr, ...) @fprintf(ptr noundef %143, ptr noundef @.str.246) #11
  store i32 1, ptr %4, align 4
  store i32 1, ptr %14, align 4
  br label %145

145:                                              ; preds = %100, %99, %67, %45
  call void @llvm.lifetime.end.p0(i64 4, ptr %13) #11
  call void @llvm.lifetime.end.p0(i64 4, ptr %12) #11
  call void @llvm.lifetime.end.p0(i64 4, ptr %11) #11
  call void @llvm.lifetime.end.p0(i64 4, ptr %10) #11
  call void @llvm.lifetime.end.p0(i64 4, ptr %9) #11
  call void @llvm.lifetime.end.p0(i64 8, ptr %8) #11
  %146 = load i32, ptr %4, align 4
  ret i32 %146
}