; Function Attrs: nounwind uwtable
define internal range(i32 0, 2) i32 @IoCommandWriteAiger(ptr noundef readonly captures(none) %0, i32 noundef %1, ptr noundef %2) #0 {
  tail call void (...) @Extra_UtilGetoptReset() #18
  br label %.outer

.outer:                                           ; preds = %12, %3
  %.047.ph = phi i32 [ %13, %12 ], [ 0, %3 ]
  %.045.ph = phi i32 [ %.045.ph91, %12 ], [ 0, %3 ]
  %.043.ph = phi i32 [ %.043.ph95, %12 ], [ 0, %3 ]
  %.042.ph = phi i32 [ %.042, %12 ], [ 0, %3 ]
  br label %.outer90

.outer90:                                         ; preds = %.outer, %10
  %.045.ph91 = phi i32 [ %.045.ph, %.outer ], [ %11, %10 ]
  %.043.ph92 = phi i32 [ %.043.ph, %.outer ], [ %.043.ph95, %10 ]
  %.042.ph93 = phi i32 [ %.042.ph, %.outer ], [ %.042, %10 ]
  br label %.outer94

.outer94:                                         ; preds = %.outer90, %8
  %.043.ph95 = phi i32 [ %.043.ph92, %.outer90 ], [ %9, %8 ]
  %.042.ph96 = phi i32 [ %.042.ph93, %.outer90 ], [ %.042, %8 ]
  br label %4

4:                                                ; preds = %.outer94, %6
  %.042 = phi i32 [ %7, %6 ], [ %.042.ph96, %.outer94 ]
  %5 = tail call i32 @Extra_UtilGetopt(i32 noundef %1, ptr noundef %2, ptr noundef nonnull @.str.239) #18
  switch i32 %5, label %.loopexit [
    i32 -1, label %14
    i32 115, label %6
    i32 99, label %8
    i32 117, label %10
    i32 118, label %12
  ]

6:                                                ; preds = %4
  %7 = xor i32 %.042, 1
  br label %4, !llvm.loop !73

8:                                                ; preds = %4
  %9 = xor i32 %.043.ph95, 1
  br label %.outer94, !llvm.loop !73

10:                                               ; preds = %4
  %11 = xor i32 %.045.ph91, 1
  br label %.outer90, !llvm.loop !73

12:                                               ; preds = %4
  %13 = xor i32 %.047.ph, 1
  br label %.outer, !llvm.loop !73

14:                                               ; preds = %4
  %15 = getelementptr inbounds nuw i8, ptr %0, i64 48
  %16 = load ptr, ptr %15, align 8, !tbaa !49
  %17 = icmp eq ptr %16, null
  br i1 %17, label %18, label %22

18:                                               ; preds = %14
  %19 = getelementptr inbounds nuw i8, ptr %0, i64 128
  %20 = load ptr, ptr %19, align 8, !tbaa !50
  %21 = tail call i64 @fwrite(ptr nonnull @.str.142, i64 15, i64 1, ptr %20)
  br label %59

22:                                               ; preds = %14
  %23 = load i32, ptr @globalUtilOptind, align 4, !tbaa !3
  %24 = add nsw i32 %23, 1
  %.not51 = icmp eq i32 %1, %24
  br i1 %.not51, label %25, label %.loopexit

25:                                               ; preds = %22
  %26 = sext i32 %23 to i64
  %27 = getelementptr inbounds ptr, ptr %2, i64 %26
  %28 = load ptr, ptr %27, align 8, !tbaa !9
  %.val = load i32, ptr %16, align 8, !tbaa !74
  %.not = icmp eq i32 %.val, 3
  br i1 %.not, label %32, label %29

29:                                               ; preds = %25
  %30 = load ptr, ptr @stdout, align 8, !tbaa !14
  %31 = tail call i64 @fwrite(ptr nonnull @.str.240, i64 67, i64 1, ptr %30)
  br label %59

32:                                               ; preds = %25
  %.not53 = icmp eq i32 %.045.ph91, 0
  br i1 %.not53, label %37, label %33

33:                                               ; preds = %32
  %34 = tail call ptr @Abc_NtkToDar(ptr noundef nonnull %16, i32 noundef 0, i32 noundef 1) #18
  %35 = tail call ptr @Saig_ManDupIsoCanonical(ptr noundef %34, i32 noundef %.047.ph) #18
  %36 = tail call ptr @Abc_NtkFromAigPhase(ptr noundef %35) #18
  tail call void @Aig_ManStop(ptr noundef %35) #18
  tail call void @Aig_ManStop(ptr noundef %34) #18
  tail call void @Io_WriteAiger(ptr noundef %36, ptr noundef %28, i32 noundef %.042, i32 noundef %.043.ph95, i32 noundef 1) #18
  tail call void @Abc_NtkDelete(ptr noundef %36) #18
  br label %59

37:                                               ; preds = %32
  tail call void @Io_WriteAiger(ptr noundef nonnull %16, ptr noundef %28, i32 noundef %.042, i32 noundef %.043.ph95, i32 noundef 0) #18
  br label %59

.loopexit:                                        ; preds = %4, %22
  %38 = getelementptr inbounds nuw i8, ptr %0, i64 136
  %39 = load ptr, ptr %38, align 8, !tbaa !34
  %40 = tail call i64 @fwrite(ptr nonnull @.str.241, i64 35, i64 1, ptr %39)
  %41 = load ptr, ptr %38, align 8, !tbaa !34
  %42 = tail call i64 @fwrite(ptr nonnull @.str.242, i64 75, i64 1, ptr %41)
  %43 = load ptr, ptr %38, align 8, !tbaa !34
  %.not54 = icmp eq i32 %.042, 0
  %44 = select i1 %.not54, ptr @.str.114, ptr @.str.113
  %45 = tail call i32 (ptr, ptr, ...) @fprintf(ptr noundef %43, ptr noundef nonnull @.str.243, ptr noundef nonnull %44) #18
  %46 = load ptr, ptr %38, align 8, !tbaa !34
  %.not55 = icmp eq i32 %.043.ph95, 0
  %47 = select i1 %.not55, ptr @.str.114, ptr @.str.113
  %48 = tail call i32 (ptr, ptr, ...) @fprintf(ptr noundef %46, ptr noundef nonnull @.str.244, ptr noundef nonnull %47) #18
  %49 = load ptr, ptr %38, align 8, !tbaa !34
  %.not56 = icmp eq i32 %.045.ph91, 0
  %50 = select i1 %.not56, ptr @.str.114, ptr @.str.113
  %51 = tail call i32 (ptr, ptr, ...) @fprintf(ptr noundef %49, ptr noundef nonnull @.str.245, ptr noundef nonnull %50) #18
  %52 = load ptr, ptr %38, align 8, !tbaa !34
  %.not57 = icmp eq i32 %.047.ph, 0
  %53 = select i1 %.not57, ptr @.str.114, ptr @.str.113
  %54 = tail call i32 (ptr, ptr, ...) @fprintf(ptr noundef %52, ptr noundef nonnull @.str.193, ptr noundef nonnull %53) #18
  %55 = load ptr, ptr %38, align 8, !tbaa !34
  %56 = tail call i64 @fwrite(ptr nonnull @.str.233, i64 33, i64 1, ptr %55)
  %57 = load ptr, ptr %38, align 8, !tbaa !34
  %58 = tail call i64 @fwrite(ptr nonnull @.str.246, i64 57, i64 1, ptr %57)
  br label %59

59:                                               ; preds = %33, %37, %.loopexit, %29, %18
  %.0 = phi i32 [ 1, %.loopexit ], [ 0, %18 ], [ 1, %29 ], [ 0, %37 ], [ 0, %33 ]
  ret i32 %.0
}